target datalayout = "e-m:e-p270:32:32-p271:32:32-p272:64:64-i64:64-i128:128-f80:128-n8:16:32:64-S128"
target triple = "x86_64-pc-linux-gnu"

%"union.Assimp::PLY::PropertyInstance::ValueUnion" = type { double }

; Function Attrs: mustprogress nounwind uwtable
define hidden noundef float @_ZN6Assimp11PLYImporter19NormalizeColorValueENS_3PLY16PropertyInstance10ValueUnionENS1_9EDataTypeE(i64 %0, i32 noundef %1) #0 align 2 {
  %3 = alloca float, align 4
  %4 = alloca %"union.Assimp::PLY::PropertyInstance::ValueUnion", align 8
  %5 = alloca i32, align 4
  %6 = getelementptr inbounds nuw %"union.Assimp::PLY::PropertyInstance::ValueUnion", ptr %4, i32 0, i32 0
  store i64 %0, ptr %6, align 8
  store i32 %1, ptr %5, align 4
  %7 = load i32, ptr %5, align 4
  switch i32 %7, label %40 [
    i32 6, label %8
    i32 7, label %10
    i32 1, label %13
    i32 0, label %17
    i32 3, label %22
    i32 2, label %26
    i32 5, label %31
    i32 4, label %35
  ]

8:                                                ; preds = %2
  %9 = load float, ptr %4, align 8
  store float %9, ptr %3, align 4
  br label %42

10:                                               ; preds = %2
  %11 = load double, ptr %4, align 8
  %12 = fptrunc double %11 to float
  store float %12, ptr %3, align 4
  br label %42

13:                                               ; preds = %2
  %14 = load i32, ptr %4, align 8
  %15 = uitofp i32 %14 to float
  %16 = fdiv float %15, 2.550000e+02
  store float %16, ptr %3, align 4
  br label %42

17:                                               ; preds = %2
  %18 = load i32, ptr %4, align 8
  %19 = add nsw i32 %18, 127
  %20 = sitofp i32 %19 to float
  %21 = fdiv float %20, 2.550000e+02
  store float %21, ptr %3, align 4
  br label %42

22:                                               ; preds = %2
  %23 = load i32, ptr %4, align 8
  %24 = uitofp i32 %23 to float
  %25 = fdiv float %24, 6.553500e+04
  store float %25, ptr %3, align 4
  br label %42

26:                                               ; preds = %2
  %27 = load i32, ptr %4, align 8
  %28 = add nsw i32 %27, 32767
  %29 = sitofp i32 %28 to float
  %30 = fdiv float %29, 6.553500e+04
  store float %30, ptr %3, align 4
  br label %42

31:                                               ; preds = %2
  %32 = load i32, ptr %4, align 8
  %33 = uitofp i32 %32 to float
  %34 = fdiv float %33, 6.553500e+04
  store float %34, ptr %3, align 4
  br label %42

35:                                               ; preds = %2
  %36 = load i32, ptr %4, align 8
  %37 = sitofp i32 %36 to float
  %38 = fdiv float %37, 2.550000e+02
  %39 = fadd float %38, 5.000000e-01
  store float %39, ptr %3, align 4
  br label %42

40:                                               ; preds = %2
  br label %41

41:                                               ; preds = %40
  store float 0.000000e+00, ptr %3, align 4
  br label %42

42:                                               ; preds = %41, %35, %31, %26, %22, %17, %13, %10, %8
  %43 = load float, ptr %3, align 4
  ret float %43
}