; Function Attrs: mustprogress nofree norecurse nosync nounwind willreturn memory(none) uwtable
define hidden noundef float @_ZN6Assimp11PLYImporter19NormalizeColorValueENS_3PLY16PropertyInstance10ValueUnionENS1_9EDataTypeE(i64 %0, i32 noundef %1) local_unnamed_addr #5 align 2 {
  %.sroa.0.sroa.0.0.extract.trunc = trunc i64 %0 to i32
  switch i32 %1, label %29 [
    i32 6, label %3
    i32 7, label %5
    i32 1, label %8
    i32 0, label %11
    i32 3, label %15
    i32 2, label %18
    i32 5, label %22
    i32 4, label %25
  ]

3:                                                ; preds = %2
  %4 = bitcast i32 %.sroa.0.sroa.0.0.extract.trunc to float
  br label %29

5:                                                ; preds = %2
  %6 = bitcast i64 %0 to double
  %7 = fptrunc double %6 to float
  br label %29

8:                                                ; preds = %2
  %9 = uitofp i32 %.sroa.0.sroa.0.0.extract.trunc to float
  %10 = fdiv float %9, 2.550000e+02
  br label %29

11:                                               ; preds = %2
  %12 = add nsw i32 %.sroa.0.sroa.0.0.extract.trunc, 127
  %13 = sitofp i32 %12 to float
  %14 = fdiv float %13, 2.550000e+02
  br label %29

15:                                               ; preds = %2
  %16 = uitofp i32 %.sroa.0.sroa.0.0.extract.trunc to float
  %17 = fdiv float %16, 6.553500e+04
  br label %29

18:                                               ; preds = %2
  %19 = add nsw i32 %.sroa.0.sroa.0.0.extract.trunc, 32767
  %20 = sitofp i32 %19 to float
  %21 = fdiv float %20, 6.553500e+04
  br label %29

22:                                               ; preds = %2
  %23 = uitofp i32 %.sroa.0.sroa.0.0.extract.trunc to float
  %24 = fdiv float %23, 6.553500e+04
  br label %29

25:                                               ; preds = %2
  %26 = sitofp i32 %.sroa.0.sroa.0.0.extract.trunc to float
  %27 = fdiv float %26, 2.550000e+02
  %28 = fadd float %27, 5.000000e-01
  br label %29

29:                                               ; preds = %2, %25, %22, %18, %15, %11, %8, %5, %3
  %.0 = phi float [ %28, %25 ], [ %24, %22 ], [ %21, %18 ], [ %17, %15 ], [ %14, %11 ], [ %10, %8 ], [ %7, %5 ], [ %4, %3 ], [ 0.000000e+00, %2 ]
  ret float %.0
}